; ModuleID = '46/3236.c'
source_filename = "46/3236.c"
target datalayout = "e-m:e-p270:32:32-p271:32:32-p272:64:64-i64:64-f80:128-n8:16:32:64-S128"
target triple = "x86_64-pc-linux-gnu"

@.str = private unnamed_addr constant [5 x i8] c"%d%d\00", align 1
@.str.1 = private unnamed_addr constant [3 x i8] c"%d\00", align 1
@.str.2 = private unnamed_addr constant [4 x i8] c"%d\0A\00", align 1

; Function Attrs: noinline nounwind uwtable
define dso_local i32 @main() #0 {
  %1 = alloca i32, align 4
  %2 = alloca i32, align 4
  %3 = alloca i32, align 4
  %4 = alloca [100 x [100 x i32]], align 16
  %5 = alloca i32, align 4
  %6 = alloca i32, align 4
  %7 = alloca i32, align 4
  %8 = alloca i32, align 4
  store i32 0, i32* %1, align 4
  store i32 0, i32* %8, align 4
  %9 = call i32 (i8*, ...) @__isoc99_scanf(i8* getelementptr inbounds ([5 x i8], [5 x i8]* @.str, i64 0, i64 0), i32* %2, i32* %3)
  store i32 0, i32* %5, align 4
  br label %10

10:                                               ; preds = %31, %0
  %11 = load i32, i32* %5, align 4
  %12 = load i32, i32* %2, align 4
  %13 = icmp slt i32 %11, %12
  br i1 %13, label %14, label %34

14:                                               ; preds = %10
  store i32 0, i32* %6, align 4
  br label %15

15:                                               ; preds = %27, %14
  %16 = load i32, i32* %6, align 4
  %17 = load i32, i32* %3, align 4
  %18 = icmp slt i32 %16, %17
  br i1 %18, label %19, label %30

19:                                               ; preds = %15
  %20 = load i32, i32* %5, align 4
  %21 = sext i32 %20 to i64
  %22 = getelementptr inbounds [100 x [100 x i32]], [100 x [100 x i32]]* %4, i64 0, i64 %21
  %23 = load i32, i32* %6, align 4
  %24 = sext i32 %23 to i64
  %25 = getelementptr inbounds [100 x i32], [100 x i32]* %22, i64 0, i64 %24
  %26 = call i32 (i8*, ...) @__isoc99_scanf(i8* getelementptr inbounds ([3 x i8], [3 x i8]* @.str.1, i64 0, i64 0), i32* %25)
  br label %27

27:                                               ; preds = %19
  %28 = load i32, i32* %6, align 4
  %29 = add nsw i32 %28, 1
  store i32 %29, i32* %6, align 4
  br label %15

30:                                               ; preds = %15
  br label %31

31:                                               ; preds = %30
  %32 = load i32, i32* %5, align 4
  %33 = add nsw i32 %32, 1
  store i32 %33, i32* %5, align 4
  br label %10

34:                                               ; preds = %10
  store i32 0, i32* %7, align 4
  br label %35

35:                                               ; preds = %165, %34
  %36 = load i32, i32* %7, align 4
  %37 = icmp sle i32 %36, 100
  br i1 %37, label %38, label %168

38:                                               ; preds = %35
  %39 = load i32, i32* %7, align 4
  store i32 %39, i32* %5, align 4
  br label %40

40:                                               ; preds = %64, %38
  %41 = load i32, i32* %5, align 4
  %42 = load i32, i32* %3, align 4
  %43 = load i32, i32* %7, align 4
  %44 = sub nsw i32 %42, %43
  %45 = icmp slt i32 %41, %44
  br i1 %45, label %46, label %67

46:                                               ; preds = %40
  %47 = load i32, i32* %8, align 4
  %48 = load i32, i32* %2, align 4
  %49 = load i32, i32* %3, align 4
  %50 = mul nsw i32 %48, %49
  %51 = icmp ne i32 %47, %50
  br i1 %51, label %52, label %63

52:                                               ; preds = %46
  %53 = load i32, i32* %7, align 4
  %54 = sext i32 %53 to i64
  %55 = getelementptr inbounds [100 x [100 x i32]], [100 x [100 x i32]]* %4, i64 0, i64 %54
  %56 = load i32, i32* %5, align 4
  %57 = sext i32 %56 to i64
  %58 = getelementptr inbounds [100 x i32], [100 x i32]* %55, i64 0, i64 %57
  %59 = load i32, i32* %58, align 4
  %60 = call i32 (i8*, ...) @printf(i8* getelementptr inbounds ([4 x i8], [4 x i8]* @.str.2, i64 0, i64 0), i32 %59)
  %61 = load i32, i32* %8, align 4
  %62 = add nsw i32 %61, 1
  store i32 %62, i32* %8, align 4
  br label %63

63:                                               ; preds = %52, %46
  br label %64

64:                                               ; preds = %63
  %65 = load i32, i32* %5, align 4
  %66 = add nsw i32 %65, 1
  store i32 %66, i32* %5, align 4
  br label %40

67:                                               ; preds = %40
  %68 = load i32, i32* %7, align 4
  %69 = add nsw i32 %68, 1
  store i32 %69, i32* %5, align 4
  br label %70

70:                                               ; preds = %97, %67
  %71 = load i32, i32* %5, align 4
  %72 = load i32, i32* %2, align 4
  %73 = load i32, i32* %7, align 4
  %74 = sub nsw i32 %72, %73
  %75 = icmp slt i32 %71, %74
  br i1 %75, label %76, label %100

76:                                               ; preds = %70
  %77 = load i32, i32* %8, align 4
  %78 = load i32, i32* %2, align 4
  %79 = load i32, i32* %3, align 4
  %80 = mul nsw i32 %78, %79
  %81 = icmp ne i32 %77, %80
  br i1 %81, label %82, label %96

82:                                               ; preds = %76
  %83 = load i32, i32* %5, align 4
  %84 = sext i32 %83 to i64
  %85 = getelementptr inbounds [100 x [100 x i32]], [100 x [100 x i32]]* %4, i64 0, i64 %84
  %86 = load i32, i32* %3, align 4
  %87 = sub nsw i32 %86, 1
  %88 = load i32, i32* %7, align 4
  %89 = sub nsw i32 %87, %88
  %90 = sext i32 %89 to i64
  %91 = getelementptr inbounds [100 x i32], [100 x i32]* %85, i64 0, i64 %90
  %92 = load i32, i32* %91, align 4
  %93 = call i32 (i8*, ...) @printf(i8* getelementptr inbounds ([4 x i8], [4 x i8]* @.str.2, i64 0, i64 0), i32 %92)
  %94 = load i32, i32* %8, align 4
  %95 = add nsw i32 %94, 1
  store i32 %95, i32* %8, align 4
  br label %96

96:                                               ; preds = %82, %76
  br label %97

97:                                               ; preds = %96
  %98 = load i32, i32* %5, align 4
  %99 = add nsw i32 %98, 1
  store i32 %99, i32* %5, align 4
  br label %70

100:                                              ; preds = %70
  %101 = load i32, i32* %3, align 4
  %102 = sub nsw i32 %101, 2
  %103 = load i32, i32* %7, align 4
  %104 = sub nsw i32 %102, %103
  store i32 %104, i32* %5, align 4
  br label %105

105:                                              ; preds = %130, %100
  %106 = load i32, i32* %5, align 4
  %107 = load i32, i32* %7, align 4
  %108 = icmp sge i32 %106, %107
  br i1 %108, label %109, label %133

109:                                              ; preds = %105
  %110 = load i32, i32* %8, align 4
  %111 = load i32, i32* %2, align 4
  %112 = load i32, i32* %3, align 4
  %113 = mul nsw i32 %111, %112
  %114 = icmp ne i32 %110, %113
  br i1 %114, label %115, label %129

115:                                              ; preds = %109
  %116 = load i32, i32* %2, align 4
  %117 = sub nsw i32 %116, 1
  %118 = load i32, i32* %7, align 4
  %119 = sub nsw i32 %117, %118
  %120 = sext i32 %119 to i64
  %121 = getelementptr inbounds [100 x [100 x i32]], [100 x [100 x i32]]* %4, i64 0, i64 %120
  %122 = load i32, i32* %5, align 4
  %123 = sext i32 %122 to i64
  %124 = getelementptr inbounds [100 x i32], [100 x i32]* %121, i64 0, i64 %123
  %125 = load i32, i32* %124, align 4
  %126 = call i32 (i8*, ...) @printf(i8* getelementptr inbounds ([4 x i8], [4 x i8]* @.str.2, i64 0, i64 0), i32 %125)
  %127 = load i32, i32* %8, align 4
  %128 = add nsw i32 %127, 1
  store i32 %128, i32* %8, align 4
  br label %129

129:                                              ; preds = %115, %109
  br label %130

130:                                              ; preds = %129
  %131 = load i32, i32* %5, align 4
  %132 = sub nsw i32 %131, 1
  store i32 %132, i32* %5, align 4
  br label %105

133:                                              ; preds = %105
  %134 = load i32, i32* %2, align 4
  %135 = sub nsw i32 %134, 2
  %136 = load i32, i32* %7, align 4
  %137 = sub nsw i32 %135, %136
  store i32 %137, i32* %5, align 4
  br label %138

138:                                              ; preds = %161, %133
  %139 = load i32, i32* %5, align 4
  %140 = load i32, i32* %7, align 4
  %141 = add nsw i32 1, %140
  %142 = icmp sge i32 %139, %141
  br i1 %142, label %143, label %164

143:                                              ; preds = %138
  %144 = load i32, i32* %8, align 4
  %145 = load i32, i32* %2, align 4
  %146 = load i32, i32* %3, align 4
  %147 = mul nsw i32 %145, %146
  %148 = icmp ne i32 %144, %147
  br i1 %148, label %149, label %160

149:                                              ; preds = %143
  %150 = load i32, i32* %5, align 4
  %151 = sext i32 %150 to i64
  %152 = getelementptr inbounds [100 x [100 x i32]], [100 x [100 x i32]]* %4, i64 0, i64 %151
  %153 = load i32, i32* %7, align 4
  %154 = sext i32 %153 to i64
  %155 = getelementptr inbounds [100 x i32], [100 x i32]* %152, i64 0, i64 %154
  %156 = load i32, i32* %155, align 4
  %157 = call i32 (i8*, ...) @printf(i8* getelementptr inbounds ([4 x i8], [4 x i8]* @.str.2, i64 0, i64 0), i32 %156)
  %158 = load i32, i32* %8, align 4
  %159 = add nsw i32 %158, 1
  store i32 %159, i32* %8, align 4
  br label %160

160:                                              ; preds = %149, %143
  br label %161

161:                                              ; preds = %160
  %162 = load i32, i32* %5, align 4
  %163 = sub nsw i32 %162, 1
  store i32 %163, i32* %5, align 4
  br label %138

164:                                              ; preds = %138
  br label %165

165:                                              ; preds = %164
  %166 = load i32, i32* %7, align 4
  %167 = add nsw i32 %166, 1
  store i32 %167, i32* %7, align 4
  br label %35

168:                                              ; preds = %35
  ret i32 0
}

declare dso_local i32 @__isoc99_scanf(i8*, ...) #1

declare dso_local i32 @printf(i8*, ...) #1


!llvm.module.flags = !{!0}
!llvm.ident = !{!1}

!0 = !{i32 1, !"wchar_size", i32 4}
!1 = !{!"clang version 10.0.0-4ubuntu1 "}
